; Function Attrs: mustprogress nounwind uwtable
define hidden void @_ZNK15ContiguousSpace6verifyEv(ptr nocapture noundef nonnull readonly align 8 dereferenceable(24) %0) local_unnamed_addr #2 align 2 {
  %2 = load ptr, ptr %0, align 8
  %3 = getelementptr inbounds i8, ptr %0, i64 16
  %4 = load ptr, ptr %3, align 8
  %5 = icmp ult ptr %2, %4
  br i1 %5, label %.lr.ph, label %._crit_edge

.lr.ph:                                           ; preds = %1, %_ZN7oopDesc4sizeEv.exit
  %.07 = phi ptr [ %61, %_ZN7oopDesc4sizeEv.exit ], [ %2, %1 ]
  tail call void @_ZN7oopDesc6verifyEPS_(ptr noundef %.07) #7
  %6 = load i8, ptr @UseCompressedClassPointers, align 1
  %7 = trunc i8 %6 to i1
  %8 = getelementptr inbounds i8, ptr %.07, i64 8
  br i1 %7, label %9, label %19

9:                                                ; preds = %.lr.ph
  %10 = load i32, ptr %8, align 8
  %11 = load ptr, ptr @_ZN23CompressedKlassPointers5_baseE, align 8
  %12 = load i32, ptr @_ZN23CompressedKlassPointers6_shiftE, align 4
  %13 = ptrtoint ptr %11 to i64
  %14 = zext i32 %10 to i64
  %15 = zext nneg i32 %12 to i64
  %16 = shl i64 %14, %15
  %17 = add i64 %16, %13
  %18 = inttoptr i64 %17 to ptr
  br label %_ZNK7oopDesc5klassEv.exit.i

19:                                               ; preds = %.lr.ph
  %20 = load ptr, ptr %8, align 8
  br label %_ZNK7oopDesc5klassEv.exit.i

_ZNK7oopDesc5klassEv.exit.i:                      ; preds = %19, %9
  %.0.i.i = phi ptr [ %18, %9 ], [ %20, %19 ]
  %21 = getelementptr inbounds i8, ptr %.0.i.i, i64 8
  %22 = load i32, ptr %21, align 8
  %23 = icmp sgt i32 %22, 0
  br i1 %23, label %24, label %34

24:                                               ; preds = %_ZNK7oopDesc5klassEv.exit.i
  %25 = and i32 %22, 1
  %.not.i.i = icmp eq i32 %25, 0
  br i1 %.not.i.i, label %26, label %29

26:                                               ; preds = %24
  %27 = lshr i32 %22, 3
  %28 = zext nneg i32 %27 to i64
  br label %_ZN7oopDesc4sizeEv.exit

29:                                               ; preds = %24
  %30 = load ptr, ptr %.0.i.i, align 8
  %31 = getelementptr inbounds i8, ptr %30, i64 256
  %32 = load ptr, ptr %31, align 8
  %33 = tail call noundef i64 %32(ptr noundef nonnull align 8 dereferenceable(196) %.0.i.i, ptr noundef nonnull %.07) #7
  br label %_ZN7oopDesc4sizeEv.exit

34:                                               ; preds = %_ZNK7oopDesc5klassEv.exit.i
  %35 = icmp slt i32 %22, 0
  br i1 %35, label %36, label %56

36:                                               ; preds = %34
  %37 = select i1 %7, i64 12, i64 16
  %38 = getelementptr inbounds i8, ptr %.07, i64 %37
  %39 = load i32, ptr %38, align 4
  %40 = sext i32 %39 to i64
  %41 = and i32 %22, 63
  %42 = zext nneg i32 %41 to i64
  %43 = shl i64 %40, %42
  %44 = lshr i32 %22, 16
  %45 = and i32 %44, 255
  %46 = zext nneg i32 %45 to i64
  %47 = add i64 %43, %46
  %48 = load i32, ptr @MinObjAlignmentInBytes, align 4
  %49 = add nsw i32 %48, -1
  %50 = sext i32 %49 to i64
  %51 = add i64 %47, %50
  %52 = sub i32 0, %48
  %53 = sext i32 %52 to i64
  %54 = and i64 %51, %53
  %55 = lshr i64 %54, 3
  br label %_ZN7oopDesc4sizeEv.exit

56:                                               ; preds = %34
  %57 = load ptr, ptr %.0.i.i, align 8
  %58 = getelementptr inbounds i8, ptr %57, i64 256
  %59 = load ptr, ptr %58, align 8
  %60 = tail call noundef i64 %59(ptr noundef nonnull align 8 dereferenceable(196) %.0.i.i, ptr noundef nonnull %.07) #7
  br label %_ZN7oopDesc4sizeEv.exit

_ZN7oopDesc4sizeEv.exit:                          ; preds = %26, %29, %36, %56
  %.0.i1.i = phi i64 [ %33, %29 ], [ %28, %26 ], [ %55, %36 ], [ %60, %56 ]
  %61 = getelementptr inbounds ptr, ptr %.07, i64 %.0.i1.i
  %62 = icmp ult ptr %61, %4
  br i1 %62, label %.lr.ph, label %._crit_edge.loopexit, !llvm.loop !6

._crit_edge.loopexit:                             ; preds = %_ZN7oopDesc4sizeEv.exit
  %.pre = load ptr, ptr %3, align 8
  br label %._crit_edge

._crit_edge:                                      ; preds = %._crit_edge.loopexit, %1
  %63 = phi ptr [ %4, %1 ], [ %.pre, %._crit_edge.loopexit ]
  %.0.lcssa = phi ptr [ %2, %1 ], [ %61, %._crit_edge.loopexit ]
  %64 = icmp eq ptr %.0.lcssa, %63
  br i1 %64, label %67, label %65

65:                                               ; preds = %._crit_edge
  %66 = load ptr, ptr @g_assert_poison, align 8
  store i8 88, ptr %66, align 1
  tail call void (ptr, i32, ptr, ptr, ...) @_Z15report_vm_errorPKciS0_S0_z(ptr noundef nonnull @.str.4, i32 noundef 95, ptr noundef nonnull @.str.5, ptr noundef nonnull @.str.6) #8
  unreachable

67:                                               ; preds = %._crit_edge
  ret void
}